target datalayout = "e-m:e-p270:32:32-p271:32:32-p272:64:64-i64:64-i128:128-f80:128-n8:16:32:64-S128"
target triple = "x86_64-pc-linux-gnu"

%struct.KDF_ARGON2 = type { ptr, i32, ptr, i32, ptr, i32, ptr, i32, ptr, i32, i32, i32, i32, i32, i32, i32, i32, ptr, i32, i32, i32, i32, ptr, ptr, ptr, ptr }

@.str = private unnamed_addr constant [51 x i8] c"../openssl/providers/implementations/kdfs/argon2.c\00", align 1
@__func__.kdf_argon2_ctx_set_threads = private unnamed_addr constant [27 x i8] c"kdf_argon2_ctx_set_threads\00", align 1
@.str.25 = private unnamed_addr constant [16 x i8] c"min threads: %u\00", align 1
@.str.26 = private unnamed_addr constant [16 x i8] c"max threads: %u\00", align 1

; Function Attrs: nounwind uwtable
define internal i32 @kdf_argon2_ctx_set_threads(ptr noundef %0, i32 noundef %1) #0 {
  %3 = alloca i32, align 4
  %4 = alloca ptr, align 8
  %5 = alloca i32, align 4
  store ptr %0, ptr %4, align 8, !tbaa !3
  store i32 %1, ptr %5, align 4, !tbaa !26
  %6 = load i32, ptr %5, align 4, !tbaa !26
  %7 = icmp ult i32 %6, 1
  br i1 %7, label %8, label %9

8:                                                ; preds = %2
  call void @ERR_new()
  call void @ERR_set_debug(ptr noundef @.str, i32 noundef 1153, ptr noundef @__func__.kdf_argon2_ctx_set_threads)
  call void (i32, i32, ptr, ...) @ERR_set_error(i32 noundef 57, i32 noundef 234, ptr noundef @.str.25, i32 noundef 1)
  store i32 0, ptr %3, align 4
  br label %17

9:                                                ; preds = %2
  %10 = load i32, ptr %5, align 4, !tbaa !26
  %11 = icmp ugt i32 %10, 16777215
  br i1 %11, label %12, label %13

12:                                               ; preds = %9
  call void @ERR_new()
  call void @ERR_set_debug(ptr noundef @.str, i32 noundef 1159, ptr noundef @__func__.kdf_argon2_ctx_set_threads)
  call void (i32, i32, ptr, ...) @ERR_set_error(i32 noundef 57, i32 noundef 234, ptr noundef @.str.26, i32 noundef 16777215)
  store i32 0, ptr %3, align 4
  br label %17

13:                                               ; preds = %9
  %14 = load i32, ptr %5, align 4, !tbaa !26
  %15 = load ptr, ptr %4, align 8, !tbaa !3
  %16 = getelementptr inbounds nuw %struct.KDF_ARGON2, ptr %15, i32 0, i32 13
  store i32 %14, ptr %16, align 8, !tbaa !34
  store i32 1, ptr %3, align 4
  br label %17

17:                                               ; preds = %13, %12, %8
  %18 = load i32, ptr %3, align 4
  ret i32 %18
}