; Function Attrs: nounwind uwtable
define internal fastcc range(i32 0, 2) i32 @kdf_argon2_ctx_set_threads(ptr noundef writeonly captures(none) %0, i32 noundef %1) unnamed_addr #0 {
  %3 = icmp eq i32 %1, 0
  br i1 %3, label %4, label %5

4:                                                ; preds = %2
  tail call void @ERR_new() #10
  tail call void @ERR_set_debug(ptr noundef nonnull @.str, i32 noundef 1153, ptr noundef nonnull @__func__.kdf_argon2_ctx_set_threads) #10
  tail call void (i32, i32, ptr, ...) @ERR_set_error(i32 noundef 57, i32 noundef 234, ptr noundef nonnull @.str.25, i32 noundef 1) #10
  br label %10

5:                                                ; preds = %2
  %6 = icmp ugt i32 %1, 16777215
  br i1 %6, label %7, label %8

7:                                                ; preds = %5
  tail call void @ERR_new() #10
  tail call void @ERR_set_debug(ptr noundef nonnull @.str, i32 noundef 1159, ptr noundef nonnull @__func__.kdf_argon2_ctx_set_threads) #10
  tail call void (i32, i32, ptr, ...) @ERR_set_error(i32 noundef 57, i32 noundef 234, ptr noundef nonnull @.str.26, i32 noundef 16777215) #10
  br label %10

8:                                                ; preds = %5
  %9 = getelementptr inbounds nuw i8, ptr %0, i64 88
  store i32 %1, ptr %9, align 8, !tbaa !17
  br label %10

10:                                               ; preds = %8, %7, %4
  %.0 = phi i32 [ 0, %4 ], [ 0, %7 ], [ 1, %8 ]
  ret i32 %.0
}